target datalayout = "e-m:e-p270:32:32-p271:32:32-p272:64:64-i64:64-i128:128-f80:128-n8:16:32:64-S128"
target triple = "x86_64-pc-linux-gnu"

%struct.AVRational = type { i32, i32 }
%struct.AVFilterFormatsConfig = type { ptr, ptr, ptr, ptr, ptr }
%struct.AVFilterLink = type { ptr, ptr, ptr, ptr, i32, i32, i32, i32, %struct.AVRational, i32, i32, i32, %struct.AVChannelLayout, %struct.AVRational, ptr, i32, %struct.AVFilterFormatsConfig, %struct.AVFilterFormatsConfig }
%struct.AVChannelLayout = type { i32, i32, %union.anon.1, ptr }
%union.anon.1 = type { i64 }

@.str.4 = private unnamed_addr constant [83 x i8] c"Palette input must contain exactly %d pixels. Specified input has %dx%d=%d pixels\0A\00", align 1

; Function Attrs: nounwind uwtable
define internal i32 @config_input_palette(ptr noundef %0) #1 {
  %2 = alloca i32, align 4
  %3 = alloca ptr, align 8
  %4 = alloca ptr, align 8
  %5 = alloca i32, align 4
  store ptr %0, ptr %3, align 8, !tbaa !44
  call void @llvm.lifetime.start.p0(i64 8, ptr %4) #11
  %6 = load ptr, ptr %3, align 8, !tbaa !44
  %7 = getelementptr inbounds nuw %struct.AVFilterLink, ptr %6, i32 0, i32 2
  %8 = load ptr, ptr %7, align 8, !tbaa !46
  store ptr %8, ptr %4, align 8, !tbaa !4
  %9 = load ptr, ptr %3, align 8, !tbaa !44
  %10 = getelementptr inbounds nuw %struct.AVFilterLink, ptr %9, i32 0, i32 6
  %11 = load i32, ptr %10, align 8, !tbaa !53
  %12 = load ptr, ptr %3, align 8, !tbaa !44
  %13 = getelementptr inbounds nuw %struct.AVFilterLink, ptr %12, i32 0, i32 7
  %14 = load i32, ptr %13, align 4, !tbaa !54
  %15 = mul nsw i32 %11, %14
  %16 = icmp ne i32 %15, 256
  br i1 %16, label %17, label %32

17:                                               ; preds = %1
  %18 = load ptr, ptr %4, align 8, !tbaa !4
  %19 = load ptr, ptr %3, align 8, !tbaa !44
  %20 = getelementptr inbounds nuw %struct.AVFilterLink, ptr %19, i32 0, i32 6
  %21 = load i32, ptr %20, align 8, !tbaa !53
  %22 = load ptr, ptr %3, align 8, !tbaa !44
  %23 = getelementptr inbounds nuw %struct.AVFilterLink, ptr %22, i32 0, i32 7
  %24 = load i32, ptr %23, align 4, !tbaa !54
  %25 = load ptr, ptr %3, align 8, !tbaa !44
  %26 = getelementptr inbounds nuw %struct.AVFilterLink, ptr %25, i32 0, i32 6
  %27 = load i32, ptr %26, align 8, !tbaa !53
  %28 = load ptr, ptr %3, align 8, !tbaa !44
  %29 = getelementptr inbounds nuw %struct.AVFilterLink, ptr %28, i32 0, i32 7
  %30 = load i32, ptr %29, align 4, !tbaa !54
  %31 = mul nsw i32 %27, %30
  call void (ptr, i32, ptr, ...) @av_log(ptr noundef %18, i32 noundef 16, ptr noundef @.str.4, i32 noundef 256, i32 noundef %21, i32 noundef %24, i32 noundef %31)
  store i32 -22, ptr %2, align 4
  store i32 1, ptr %5, align 4
  br label %33

32:                                               ; preds = %1
  store i32 0, ptr %2, align 4
  store i32 1, ptr %5, align 4
  br label %33

33:                                               ; preds = %32, %17
  call void @llvm.lifetime.end.p0(i64 8, ptr %4) #11
  %34 = load i32, ptr %2, align 4
  ret i32 %34
}