; Function Attrs: nounwind uwtable
define internal range(i32 -22, 1) i32 @config_input_palette(ptr noundef readonly captures(none) %0) #1 {
  %2 = getelementptr inbounds nuw i8, ptr %0, i64 40
  %3 = load i32, ptr %2, align 8, !tbaa !39
  %4 = getelementptr inbounds nuw i8, ptr %0, i64 44
  %5 = load i32, ptr %4, align 4, !tbaa !46
  %6 = mul nsw i32 %5, %3
  %.not = icmp eq i32 %6, 256
  br i1 %.not, label %10, label %7

7:                                                ; preds = %1
  %8 = getelementptr inbounds nuw i8, ptr %0, i64 16
  %9 = load ptr, ptr %8, align 8, !tbaa !47
  tail call void (ptr, i32, ptr, ...) @av_log(ptr noundef %9, i32 noundef 16, ptr noundef nonnull @.str.4, i32 noundef 256, i32 noundef %3, i32 noundef %5, i32 noundef %6) #13
  br label %10

10:                                               ; preds = %1, %7
  %.0 = phi i32 [ -22, %7 ], [ 0, %1 ]
  ret i32 %.0
}